; Function Attrs: nounwind uwtable
define dso_local void @llvm_emit_memcpy_to_decl(ptr noundef %0, ptr nocapture noundef readonly %1, ptr noundef %2, i32 noundef %3) local_unnamed_addr #0 {
  %5 = icmp eq i32 %3, 0
  br i1 %5, label %6, label %10

6:                                                ; preds = %4
  %7 = getelementptr inbounds i8, ptr %1, i64 72
  %8 = load ptr, ptr %7, align 8
  %9 = tail call i32 @type_abi_alignment(ptr noundef %8) #10
  br label %10

10:                                               ; preds = %6, %4
  %.0 = phi i32 [ %9, %6 ], [ %3, %4 ]
  %11 = getelementptr inbounds i8, ptr %1, i64 32
  %12 = load ptr, ptr %11, align 8
  %13 = getelementptr inbounds i8, ptr %1, i64 40
  %14 = load i32, ptr %13, align 8
  %15 = getelementptr inbounds i8, ptr %1, i64 72
  %16 = load ptr, ptr %15, align 8
  %17 = tail call i32 @type_size(ptr noundef %16) #10
  %18 = zext i32 %17 to i64
  %19 = tail call ptr @llvm_emit_memcpy(ptr noundef %0, ptr noundef %12, i32 noundef %14, ptr noundef %2, i32 noundef %.0, i64 noundef %18)
  ret void
}